; Function Attrs: mustprogress uwtable
define void @_ZN7mitsuba6Stream4skipEm(ptr noundef nonnull align 8 dereferenceable(16) %0, i64 noundef %1) local_unnamed_addr #6 align 2 {
  %3 = load ptr, ptr %0, align 8
  %4 = getelementptr inbounds i8, ptr %3, i64 120
  %5 = load ptr, ptr %4, align 8
  %6 = tail call noundef i64 %5(ptr noundef nonnull align 8 dereferenceable(16) %0)
  %7 = add i64 %6, %1
  %8 = load ptr, ptr %0, align 8
  %9 = getelementptr inbounds i8, ptr %8, i64 104
  %10 = load ptr, ptr %9, align 8
  tail call void %10(ptr noundef nonnull align 8 dereferenceable(16) %0, i64 noundef %7)
  ret void
}